Certificate Request:
    Data:
        Version: 0 (0x0)
        Subject: CN=pgvip. test.com
        Subject Public Key Info:
            Public Key Algorithm: rsaEncryption
                Public-Key: (2048 bit)
                Modulus:
                    00:d5:71:83:19:94:d5:1e:77:50:79:66:34:37:aa:
                    46:e0:45:d7:c5:79:de:2d:76:38:ea:af:0c:68:22:
                    f3:6f:fc:39:5b:1e:ff:bc:a4:46:98:65:e9:90:da:
                    72:58:9d:fd:d2:b0:1f:21:a3:a7:f3:d5:9d:91:82:
                    d6:41:b7:e0:a6:1a:45:bc:35:e4:00:b0:1e:03:a6:
                    56:4f:06:88:d4:3a:20:01:00:68:17:cb:f3:a2:e7:
                    9a:24:df:8c:52:9f:33:1a:aa:69:d8:5e:8c:bc:01:
                    ca:de:57:4e:45:cb:a7:29:6c:c6:08:bf:f9:2e:49:
                    60:f1:15:c3:8a:d9:1f:13:50:fe:24:0b:b2:f1:25:
                    56:40:f9:f4:34:b9:0e:79:45:c3:2a:e8:e9:a2:c0:
                    7a:0f:18:2c:4b:7e:28:73:ca:ac:a2:4a:87:1f:c3:
                    d6:68:62:1f:5c:d0:15:a0:f5:a2:4b:50:12:7e:70:
                    e7:1f:c5:dd:0d:fc:4c:18:60:99:b6:d5:12:1a:fe:
                    43:83:6a:2c:37:16:04:6a:78:24:85:8e:b1:7f:92:
                    75:05:ee:a8:36:8e:20:52:2a:9a:2a:7b:99:5b:47:
                    f9:2b:ca:4b:f4:a8:80:58:e1:1b:e1:fc:08:4e:aa:
                    d2:85:45:42:74:8a:a9:75:e3:98:32:c7:04:5b:8e:
                    28:cd
                Exponent: 65537 (0x10001)
        Attributes:
            a0:00
    Signature Algorithm: sha256WithRSAEncryption
         4f:72:85:e7:d0:8a:5f:45:ed:e4:db:34:00:9a:0f:c3:0f:d2:
         1d:45:8f:8e:32:c4:0f:18:8d:d2:ea:4d:24:87:7d:b7:3c:52:
         9f:31:23:91:d6:96:51:94:c7:ff:5e:60:41:bd:f5:8e:9b:c2:
         11:a1:b5:9c:61:ba:94:96:48:86:83:bc:96:9b:3d:3a:27:99:
         37:0a:54:86:8a:81:50:37:b2:0b:43:d0:b2:87:5a:01:f5:8b:
         29:63:55:71:a4:e9:18:28:e1:c5:20:f5:5d:1a:f6:4c:8f:b5:
         99:55:6b:a4:23:5b:0b:0f:38:74:09:83:6c:6a:b0:73:16:a9:
         48:7b:ad:b8:cd:66:ec:d1:29:0f:55:e5:81:0a:bb:d1:66:9f:
         9f:1c:8e:94:53:60:6c:c5:e8:56:91:8a:36:85:79:ec:e6:d2:
         40:51:77:98:b8:90:bd:84:23:d9:05:3d:6d:30:1c:b4:96:b8:
         89:5e:f6:79:65:d7:4e:c6:84:c2:aa:8d:7f:46:9a:a3:f4:57:
         1e:b7:8b:a7:d9:f0:17:26:d2:3c:06:d9:fc:0e:bb:88:3d:eb:
         e0:48:ba:74:b0:8e:e9:ba:42:05:ec:49:47:7f:e0:77:e1:dc:
         b4:c4:5a:5f:43:ea:be:8e:12:f7:3b:9b:7e:cb:6e:30:9a:3d:
         b9:4d:ce:f6
-----BEGIN CERTIFICATE REQUEST-----
MIICXzCCAUcCAQAwGjEYMBYGA1UEAwwPcGd2aXAuIHRlc3QuY29tMIIBIjANBgkq
hkiG9w0BAQEFAAOCAQ8AMIIBCgKCAQEA1XGDGZTVHndQeWY0N6pG4EXXxXneLXY4
6q8MaCLzb/w5Wx7/vKRGmGXpkNpyWJ390rAfIaOn89WdkYLWQbfgphpFvDXkALAe
A6ZWTwaI1DogAQBoF8vzoueaJN+MUp8zGqpp2F6MvAHK3ldORcunKWzGCL/5Lklg
8RXDitkfE1D+JAuy8SVWQPn0NLkOeUXDKujposB6DxgsS34oc8qsokqHH8PWaGIf
XNAVoPWiS1ASfnDnH8XdDfxMGGCZttUSGv5Dg2osNxYEangkhY6xf5J1Be6oNo4g
UiqaKnuZW0f5K8pL9KiAWOEb4fwITqrShUVCdIqpdeOYMscEW44ozQIDAQABoAAw
DQYJKoZIhvcNAQELBQADggEBAE9yhefQil9F7eTbNACaD8MP0h1Fj44yxA8YjdLq
TSSHfbc8Up8xI5HWllGUx/9eYEG99Y6bwhGhtZxhupSWSIaDvJabPTonmTcKVIaK
gVA3sgtD0LKHWgH1iyljVXGk6Rgo4cUg9V0a9kyPtZlVa6QjWwsPOHQJg2xqsHMW
qUh7rbjNZuzRKQ9V5YEKu9Fmn58cjpRTYGzF6FaRijaFeezm0kBRd5i4kL2EI9kF
PW0wHLSWuIle9nll107GhMKqjX9GmqP0Vx63i6fZ8Bcm0jwG2fwOu4g96+BIunSw
jum6QgXsSUd/4Hfh3LTEWl9D6r6OEvc7m37LbjCaPblNzvY=
-----END CERTIFICATE REQUEST-----
