Certificate Request:
    Data:
        Version: 0 (0x0)
        Subject: CN=pgvip.test.com
        Subject Public Key Info:
            Public Key Algorithm: rsaEncryption
                Public-Key: (2048 bit)
                Modulus:
                    00:bd:56:f9:f7:b4:60:6d:5d:8d:e0:67:23:0a:6b:
                    f1:3a:14:58:59:69:cc:95:86:54:cc:8f:22:a8:e4:
                    e3:02:15:82:2b:36:d2:ea:bd:ee:26:82:fa:0d:a9:
                    f4:5e:7b:d4:6c:39:4c:f7:d9:1d:e6:d2:78:b0:1d:
                    52:cb:8c:af:3b:d1:60:bd:db:79:8a:5b:22:be:7e:
                    c9:8a:79:3d:e0:f8:41:2a:15:ec:ca:14:b8:b2:9e:
                    fd:b5:c0:08:7e:c1:6a:e7:6e:a0:d4:14:fb:25:87:
                    7a:a9:7c:7e:c6:31:f9:7f:ab:11:b3:ac:61:b1:b3:
                    d7:48:47:4f:8b:ee:4f:f7:f6:e8:5a:11:3d:74:02:
                    52:05:4a:d9:68:28:34:0f:5c:bf:38:1f:d2:b5:74:
                    c4:bd:9b:c1:7b:63:c2:ec:dd:15:d4:05:f0:bd:62:
                    e3:8f:7e:5e:15:2b:5b:fa:b3:30:f3:16:24:7c:26:
                    1b:ac:9e:46:d8:b3:85:44:1e:0d:d7:e2:d0:59:5c:
                    48:bf:54:9d:86:e7:08:23:83:8d:04:05:df:dd:b8:
                    b4:2f:04:2e:7b:4f:ee:c8:23:8a:e4:80:0b:72:e6:
                    d5:1a:bd:fd:76:d5:f2:3c:0a:18:2e:24:1c:0e:c7:
                    50:cb:32:b5:a7:07:9b:ae:81:d7:86:d1:e8:68:80:
                    ff:41
                Exponent: 65537 (0x10001)
        Attributes:
            a0:00
    Signature Algorithm: sha256WithRSAEncryption
         50:83:b4:4a:6b:10:4b:93:ca:93:b5:8d:88:1f:57:22:d2:cc:
         d5:39:86:c4:6f:a8:4d:d7:2e:b0:25:07:60:8d:d8:3f:9e:2d:
         6f:57:ae:3e:fe:f7:fd:ec:8b:da:f9:92:07:17:2f:02:5d:fc:
         c3:60:94:5a:41:49:2e:be:5b:ad:b9:0a:b1:f3:97:86:f4:00:
         34:9f:69:ea:86:78:a9:3f:11:bc:81:7c:fa:e8:c5:da:5d:3d:
         79:14:43:c7:44:0e:16:93:7d:e5:df:5c:cf:14:b0:97:fb:5c:
         2d:81:d4:72:ac:72:ec:a8:43:dc:33:1f:7e:de:64:83:c1:f7:
         23:66:39:1d:98:f7:8d:e5:c8:4a:a0:41:5b:90:c1:01:c0:8f:
         ea:d8:7d:31:a8:4c:24:06:3a:85:52:06:08:5f:b8:8c:87:2a:
         f1:cf:a8:c8:7e:3f:a3:b5:b6:a5:c2:8a:6d:98:b6:6d:f4:57:
         ff:fb:bf:31:ae:0c:63:70:f9:a0:b2:ca:0a:0f:5d:2d:bf:70:
         cc:ba:97:98:ac:f2:2e:1e:ec:0e:3b:38:64:6d:e3:5b:75:b6:
         a5:fd:f6:9b:2d:dd:45:c1:08:92:27:28:d1:d3:36:00:c5:79:
         d7:aa:4f:9f:92:b2:38:6f:a2:11:e5:ba:91:d5:de:eb:8d:04:
         7d:3a:8c:ba
-----BEGIN CERTIFICATE REQUEST-----
MIICXjCCAUYCAQAwGTEXMBUGA1UEAwwOcGd2aXAudGVzdC5jb20wggEiMA0GCSqG
SIb3DQEBAQUAA4IBDwAwggEKAoIBAQC9Vvn3tGBtXY3gZyMKa/E6FFhZacyVhlTM
jyKo5OMCFYIrNtLqve4mgvoNqfRee9RsOUz32R3m0niwHVLLjK870WC923mKWyK+
fsmKeT3g+EEqFezKFLiynv21wAh+wWrnbqDUFPslh3qpfH7GMfl/qxGzrGGxs9dI
R0+L7k/39uhaET10AlIFStloKDQPXL84H9K1dMS9m8F7Y8Ls3RXUBfC9YuOPfl4V
K1v6szDzFiR8JhusnkbYs4VEHg3X4tBZXEi/VJ2G5wgjg40EBd/duLQvBC57T+7I
I4rkgAty5tUavf121fI8ChguJBwOx1DLMrWnB5uugdeG0ehogP9BAgMBAAGgADAN
BgkqhkiG9w0BAQsFAAOCAQEAUIO0SmsQS5PKk7WNiB9XItLM1TmGxG+oTdcusCUH
YI3YP54tb1euPv73/eyL2vmSBxcvAl38w2CUWkFJLr5brbkKsfOXhvQANJ9p6oZ4
qT8RvIF8+ujF2l09eRRDx0QOFpN95d9czxSwl/tcLYHUcqxy7KhD3DMfft5kg8H3
I2Y5HZj3jeXISqBBW5DBAcCP6th9MahMJAY6hVIGCF+4jIcq8c+oyH4/o7W2pcKK
bZi2bfRX//u/Ma4MY3D5oLLKCg9dLb9wzLqXmKzyLh7sDjs4ZG3jW3W2pf32my3d
RcEIkico0dM2AMV516pPn5KyOG+iEeW6kdXe640EfTqMug==
-----END CERTIFICATE REQUEST-----
